target datalayout = "e-m:e-p270:32:32-p271:32:32-p272:64:64-i64:64-i128:128-f80:128-n8:16:32:64-S128"
target triple = "x86_64-pc-linux-gnu"

%"class.WasmEdge::Runtime::Instance::FunctionInstance" = type { %"class.WasmEdge::Runtime::Instance::CompositeBase.base", ptr, %"class.std::variant.562" }
%"class.WasmEdge::Runtime::Instance::CompositeBase.base" = type <{ ptr, ptr, i32 }>
%"class.std::variant.562" = type { %"struct.std::__detail::__variant::_Variant_base.base.583", [7 x i8] }
%"struct.std::__detail::__variant::_Variant_base.base.583" = type { %"struct.std::__detail::__variant::_Move_assign_base.base.582" }
%"struct.std::__detail::__variant::_Move_assign_base.base.582" = type { %"struct.std::__detail::__variant::_Copy_assign_base.base.581" }
%"struct.std::__detail::__variant::_Copy_assign_base.base.581" = type { %"struct.std::__detail::__variant::_Move_ctor_base.base.580" }
%"struct.std::__detail::__variant::_Move_ctor_base.base.580" = type { %"struct.std::__detail::__variant::_Copy_ctor_base.base.579" }
%"struct.std::__detail::__variant::_Copy_ctor_base.base.579" = type { %"struct.std::__detail::__variant::_Variant_storage.base.578" }
%"struct.std::__detail::__variant::_Variant_storage.base.578" = type { %"union.std::__detail::__variant::_Variadic_union.569", i8 }
%"union.std::__detail::__variant::_Variadic_union.569" = type { %"struct.std::__detail::__variant::_Uninitialized.570" }
%"struct.std::__detail::__variant::_Uninitialized.570" = type { %"struct.__gnu_cxx::__aligned_membuf.571" }
%"struct.__gnu_cxx::__aligned_membuf.571" = type { [56 x i8] }

; Function Attrs: mustprogress nounwind uwtable
define internal noundef ptr @_ZN12_GLOBAL__N_113toFuncTypeCxtEPKN8WasmEdge3AST12FunctionTypeE(ptr noundef %0) #0 {
  %2 = alloca ptr, align 8
  store ptr %0, ptr %2, align 8
  %3 = load ptr, ptr %2, align 8
  ret ptr %3
}

; Function Attrs: mustprogress nounwind uwtable
define linkonce_odr hidden noundef nonnull align 8 dereferenceable(72) ptr @_ZNK8WasmEdge7Runtime8Instance16FunctionInstance11getFuncTypeEv(ptr noundef nonnull align 8 dereferenceable(96) %0) #0 comdat align 2 {
  %2 = alloca ptr, align 8
  store ptr %0, ptr %2, align 8
  %3 = load ptr, ptr %2, align 8
  %4 = getelementptr inbounds %"class.WasmEdge::Runtime::Instance::FunctionInstance", ptr %3, i32 0, i32 1
  %5 = load ptr, ptr %4, align 8
  ret ptr %5
}

; Function Attrs: mustprogress nounwind uwtable
define internal noundef ptr @_ZN12_GLOBAL__N_111fromFuncCxtEPK32WasmEdge_FunctionInstanceContext(ptr noundef %0) #0 {
  %2 = alloca ptr, align 8
  store ptr %0, ptr %2, align 8
  %3 = load ptr, ptr %2, align 8
  ret ptr %3
}

; Function Attrs: mustprogress nounwind uwtable
define ptr @WasmEdge_FunctionInstanceGetFunctionType(ptr noundef %0) #0 {
  %2 = alloca ptr, align 8
  %3 = alloca ptr, align 8
  store ptr %0, ptr %3, align 8
  %4 = load ptr, ptr %3, align 8
  %5 = icmp ne ptr %4, null
  br i1 %5, label %6, label %11

6:                                                ; preds = %1
  %7 = load ptr, ptr %3, align 8
  %8 = call noundef ptr @_ZN12_GLOBAL__N_111fromFuncCxtEPK32WasmEdge_FunctionInstanceContext(ptr noundef %7) #18
  %9 = call noundef nonnull align 8 dereferenceable(72) ptr @_ZNK8WasmEdge7Runtime8Instance16FunctionInstance11getFuncTypeEv(ptr noundef nonnull align 8 dereferenceable(96) %8) #18
  %10 = call noundef ptr @_ZN12_GLOBAL__N_113toFuncTypeCxtEPKN8WasmEdge3AST12FunctionTypeE(ptr noundef %9) #18
  store ptr %10, ptr %2, align 8
  br label %12

11:                                               ; preds = %1
  store ptr null, ptr %2, align 8
  br label %12

12:                                               ; preds = %11, %6
  %13 = load ptr, ptr %2, align 8
  ret ptr %13
}